target datalayout = "e-m:e-p270:32:32-p271:32:32-p272:64:64-i64:64-i128:128-f80:128-n8:16:32:64-S128"
target triple = "x86_64-pc-linux-gnu"

%"class.llvm::Value" = type { i8, i8, i16, i32, ptr, ptr }

; Function Attrs: mustprogress nounwind uwtable
define linkonce_odr hidden noundef ptr @_ZN4llvm16cast_convert_valINS_14FPMathOperatorEPNS_11InstructionES3_E4doitEPKS2_(ptr noundef %0) #0 comdat align 2 {
  %2 = alloca ptr, align 8
  store ptr %0, ptr %2, align 8
  %3 = load ptr, ptr %2, align 8
  ret ptr %3
}

; Function Attrs: mustprogress nounwind uwtable
define linkonce_odr hidden noundef ptr @_ZN4llvm8CastInfoINS_14FPMathOperatorEPNS_11InstructionEvE6doCastERKS3_(ptr noundef nonnull align 8 dereferenceable(8) %0) #0 comdat align 2 {
  %2 = alloca ptr, align 8
  store ptr %0, ptr %2, align 8
  %3 = load ptr, ptr %2, align 8
  %4 = load ptr, ptr %3, align 8
  %5 = call noundef ptr @_ZN4llvm16cast_convert_valINS_14FPMathOperatorEPNS_11InstructionES3_E4doitEPKS2_(ptr noundef %4)
  ret ptr %5
}

; Function Attrs: mustprogress nounwind uwtable
define linkonce_odr hidden void @_ZN4llvm14FPMathOperator19setHasNoSignedZerosEb(ptr noundef nonnull align 8 dereferenceable(24) %0, i1 noundef zeroext %1) #0 comdat align 2 {
  %3 = alloca ptr, align 8
  %4 = alloca i8, align 1
  store ptr %0, ptr %3, align 8
  %5 = zext i1 %1 to i8
  store i8 %5, ptr %4, align 1
  %6 = load ptr, ptr %3, align 8
  %7 = getelementptr inbounds nuw %"class.llvm::Value", ptr %6, i32 0, i32 1
  %8 = load i8, ptr %7, align 1
  %9 = lshr i8 %8, 1
  %10 = zext i8 %9 to i32
  %11 = and i32 %10, -9
  %12 = load i8, ptr %4, align 1
  %13 = trunc i8 %12 to i1
  %14 = zext i1 %13 to i32
  %15 = mul nsw i32 %14, 8
  %16 = or i32 %11, %15
  %17 = trunc i32 %16 to i8
  %18 = getelementptr inbounds nuw %"class.llvm::Value", ptr %6, i32 0, i32 1
  %19 = load i8, ptr %18, align 1
  %20 = and i8 %17, 127
  %21 = shl i8 %20, 1
  %22 = and i8 %19, 1
  %23 = or i8 %22, %21
  store i8 %23, ptr %18, align 1
  ret void
}

; Function Attrs: mustprogress nounwind uwtable
define linkonce_odr hidden noundef ptr @_ZN4llvm4castINS_14FPMathOperatorENS_11InstructionEEEDcPT0_(ptr noundef %0) #0 comdat {
  %2 = alloca ptr, align 8
  store ptr %0, ptr %2, align 8
  %3 = call noundef ptr @_ZN4llvm8CastInfoINS_14FPMathOperatorEPNS_11InstructionEvE6doCastERKS3_(ptr noundef nonnull align 8 dereferenceable(8) %2)
  ret ptr %3
}

; Function Attrs: mustprogress nounwind uwtable
define dso_local void @_ZN4llvm11Instruction19setHasNoSignedZerosEb(ptr noundef nonnull align 8 dereferenceable(72) %0, i1 noundef zeroext %1) #0 align 2 {
  %3 = alloca ptr, align 8
  %4 = alloca i8, align 1
  store ptr %0, ptr %3, align 8
  %5 = zext i1 %1 to i8
  store i8 %5, ptr %4, align 1
  %6 = load ptr, ptr %3, align 8
  %7 = call noundef ptr @_ZN4llvm4castINS_14FPMathOperatorENS_11InstructionEEEDcPT0_(ptr noundef %6)
  %8 = load i8, ptr %4, align 1
  %9 = trunc i8 %8 to i1
  call void @_ZN4llvm14FPMathOperator19setHasNoSignedZerosEb(ptr noundef nonnull align 8 dereferenceable(24) %7, i1 noundef zeroext %9)
  ret void
}