; Function Attrs: mustprogress nofree norecurse nosync nounwind willreturn memory(argmem: readwrite) uwtable
define dso_local void @_ZN4llvm11Instruction19setHasNoSignedZerosEb(ptr nocapture noundef nonnull align 8 dereferenceable(72) %0, i1 noundef zeroext %1) local_unnamed_addr #6 align 2 {
  %3 = getelementptr inbounds nuw i8, ptr %0, i64 1
  %4 = load i8, ptr %3, align 1
  %5 = select i1 %1, i8 16, i8 0
  %6 = and i8 %4, -17
  %7 = or disjoint i8 %6, %5
  store i8 %7, ptr %3, align 1
  ret void
}